target datalayout = "e-m:e-p270:32:32-p271:32:32-p272:64:64-i64:64-i128:128-f80:128-n8:16:32:64-S128"
target triple = "x86_64-pc-linux-gnu"

%"class.gmx::StatePropagatorData" = type { i32, i32, %"class.gmx::PaddedVector", %"class.gmx::PaddedVector", %"class.gmx::PaddedVector", %"class.gmx::ForceBuffers", [3 x [3 x float]], [3 x [3 x float]], i32, i32, %"class.std::vector.39", %"class.gmx::PaddedVector", %"class.gmx::PaddedVector", %"class.gmx::PaddedVector", %"class.gmx::PaddedVector", %"class.std::unique_ptr", %"class.std::unique_ptr.43", i8, %"class.gmx::PaddedVector", i8, i64, ptr, ptr }
%"class.gmx::ForceBuffers" = type <{ %"class.gmx::PaddedVector", %"class.gmx::PaddedVector", %"class.gmx::ForceBuffersView", i8, [7 x i8] }>
%"class.gmx::ForceBuffersView" = type <{ %"class.gmx::ArrayRefWithPadding", %"class.gmx::ArrayRefWithPadding", i8, [7 x i8] }>
%"class.gmx::ArrayRefWithPadding" = type { ptr, ptr, ptr }
%"class.std::vector.39" = type { %"struct.std::_Vector_base.40" }
%"struct.std::_Vector_base.40" = type { %"struct.std::_Vector_base<int, std::allocator<int>>::_Vector_impl" }
%"struct.std::_Vector_base<int, std::allocator<int>>::_Vector_impl" = type { %"struct.std::_Vector_base<int, std::allocator<int>>::_Vector_impl_data" }
%"struct.std::_Vector_base<int, std::allocator<int>>::_Vector_impl_data" = type { ptr, ptr, ptr }
%"class.std::unique_ptr" = type { %"struct.std::__uniq_ptr_data" }
%"struct.std::__uniq_ptr_data" = type { %"class.std::__uniq_ptr_impl" }
%"class.std::__uniq_ptr_impl" = type { %"class.std::tuple" }
%"class.std::tuple" = type { %"struct.std::_Tuple_impl" }
%"struct.std::_Tuple_impl" = type { %"struct.std::_Head_base.42" }
%"struct.std::_Head_base.42" = type { ptr }
%"class.std::unique_ptr.43" = type { %"struct.std::__uniq_ptr_data.44" }
%"struct.std::__uniq_ptr_data.44" = type { %"class.std::__uniq_ptr_impl.45" }
%"class.std::__uniq_ptr_impl.45" = type { %"class.std::tuple.46" }
%"class.std::tuple.46" = type { %"struct.std::_Tuple_impl.47" }
%"struct.std::_Tuple_impl.47" = type { %"struct.std::_Head_base.50" }
%"struct.std::_Head_base.50" = type { ptr }
%"class.gmx::PaddedVector" = type { %"class.std::vector", %"class.__gnu_cxx::__normal_iterator" }
%"class.std::vector" = type { %"struct.std::_Vector_base" }
%"struct.std::_Vector_base" = type { %"struct.std::_Vector_base<gmx::BasicVector<float>, gmx::Allocator<gmx::BasicVector<float>, gmx::HostAllocationPolicy>>::_Vector_impl" }
%"struct.std::_Vector_base<gmx::BasicVector<float>, gmx::Allocator<gmx::BasicVector<float>, gmx::HostAllocationPolicy>>::_Vector_impl" = type { %"class.gmx::Allocator", %"struct.std::_Vector_base<gmx::BasicVector<float>, gmx::Allocator<gmx::BasicVector<float>, gmx::HostAllocationPolicy>>::_Vector_impl_data" }
%"class.gmx::Allocator" = type { %"class.gmx::HostAllocationPolicy" }
%"class.gmx::HostAllocationPolicy" = type { i32 }
%"struct.std::_Vector_base<gmx::BasicVector<float>, gmx::Allocator<gmx::BasicVector<float>, gmx::HostAllocationPolicy>>::_Vector_impl_data" = type { ptr, ptr, ptr }
%"class.__gnu_cxx::__normal_iterator" = type { ptr }
%class.t_state = type { i32, i32, i32, i32, i32, i32, %"struct.gmx::EnumerationArray.167", [3 x [3 x float]], [3 x [3 x float]], [3 x [3 x float]], [3 x [3 x float]], [3 x [3 x float]], [3 x [3 x float]], %"class.std::vector.168", %"class.std::vector.168", %"class.std::vector.168", %"class.std::vector.168", %"class.std::vector.168", double, float, float, %"class.gmx::PaddedVector", %"class.gmx::PaddedVector", %"class.gmx::PaddedVector", %class.ekinstate_t, %class.history_t, ptr, %"class.std::shared_ptr", i32, i32, %"class.std::vector.39", %"class.std::vector.168" }
%"struct.gmx::EnumerationArray.167" = type { [7 x float] }
%class.ekinstate_t = type <{ i8, [3 x i8], i32, ptr, ptr, ptr, [3 x [3 x float]], [4 x i8], %"class.std::vector.168", %"class.std::vector.168", %"class.std::vector.168", float, float, i8, [7 x i8] }>
%class.history_t = type { float, %"class.std::vector.173", float, %"class.std::vector.173" }
%"class.std::vector.173" = type { %"struct.std::_Vector_base.174" }
%"struct.std::_Vector_base.174" = type { %"struct.std::_Vector_base<float, std::allocator<float>>::_Vector_impl" }
%"struct.std::_Vector_base<float, std::allocator<float>>::_Vector_impl" = type { %"struct.std::_Vector_base<float, std::allocator<float>>::_Vector_impl_data" }
%"struct.std::_Vector_base<float, std::allocator<float>>::_Vector_impl_data" = type { ptr, ptr, ptr }
%"class.std::shared_ptr" = type { %"class.std::__shared_ptr" }
%"class.std::__shared_ptr" = type { ptr, %"class.std::__shared_count" }
%"class.std::__shared_count" = type { ptr }
%"class.std::vector.168" = type { %"struct.std::_Vector_base.169" }
%"struct.std::_Vector_base.169" = type { %"struct.std::_Vector_base<double, std::allocator<double>>::_Vector_impl" }
%"struct.std::_Vector_base<double, std::allocator<double>>::_Vector_impl" = type { %"struct.std::_Vector_base<double, std::allocator<double>>::_Vector_impl_data" }
%"struct.std::_Vector_base<double, std::allocator<double>>::_Vector_impl_data" = type { ptr, ptr, ptr }

; Function Attrs: mustprogress nounwind uwtable
define internal void @_ZL9copy_rvecPKfPf(ptr noundef %0, ptr noundef %1) #1 {
  %3 = alloca ptr, align 8
  %4 = alloca ptr, align 8
  store ptr %0, ptr %3, align 8
  store ptr %1, ptr %4, align 8
  %5 = load ptr, ptr %3, align 8
  %6 = getelementptr inbounds float, ptr %5, i64 0
  %7 = load float, ptr %6, align 4
  %8 = load ptr, ptr %4, align 8
  %9 = getelementptr inbounds float, ptr %8, i64 0
  store float %7, ptr %9, align 4
  %10 = load ptr, ptr %3, align 8
  %11 = getelementptr inbounds float, ptr %10, i64 1
  %12 = load float, ptr %11, align 4
  %13 = load ptr, ptr %4, align 8
  %14 = getelementptr inbounds float, ptr %13, i64 1
  store float %12, ptr %14, align 4
  %15 = load ptr, ptr %3, align 8
  %16 = getelementptr inbounds float, ptr %15, i64 2
  %17 = load float, ptr %16, align 4
  %18 = load ptr, ptr %4, align 8
  %19 = getelementptr inbounds float, ptr %18, i64 2
  store float %17, ptr %19, align 4
  ret void
}

; Function Attrs: mustprogress uwtable
define internal void @_ZL8copy_matPA3_KfPA3_f(ptr noundef %0, ptr noundef %1) #0 {
  %3 = alloca ptr, align 8
  %4 = alloca ptr, align 8
  store ptr %0, ptr %3, align 8
  store ptr %1, ptr %4, align 8
  %5 = load ptr, ptr %3, align 8
  %6 = getelementptr inbounds [3 x float], ptr %5, i64 0
  %7 = getelementptr inbounds [3 x float], ptr %6, i64 0, i64 0
  %8 = load ptr, ptr %4, align 8
  %9 = getelementptr inbounds [3 x float], ptr %8, i64 0
  %10 = getelementptr inbounds [3 x float], ptr %9, i64 0, i64 0
  call void @_ZL9copy_rvecPKfPf(ptr noundef %7, ptr noundef %10)
  %11 = load ptr, ptr %3, align 8
  %12 = getelementptr inbounds [3 x float], ptr %11, i64 1
  %13 = getelementptr inbounds [3 x float], ptr %12, i64 0, i64 0
  %14 = load ptr, ptr %4, align 8
  %15 = getelementptr inbounds [3 x float], ptr %14, i64 1
  %16 = getelementptr inbounds [3 x float], ptr %15, i64 0, i64 0
  call void @_ZL9copy_rvecPKfPf(ptr noundef %13, ptr noundef %16)
  %17 = load ptr, ptr %3, align 8
  %18 = getelementptr inbounds [3 x float], ptr %17, i64 2
  %19 = getelementptr inbounds [3 x float], ptr %18, i64 0, i64 0
  %20 = load ptr, ptr %4, align 8
  %21 = getelementptr inbounds [3 x float], ptr %20, i64 2
  %22 = getelementptr inbounds [3 x float], ptr %21, i64 0, i64 0
  call void @_ZL9copy_rvecPKfPf(ptr noundef %19, ptr noundef %22)
  ret void
}

; Function Attrs: mustprogress nounwind uwtable
define linkonce_odr noundef i32 @_Z18enumValueToBitMaskI10StateEntryEiT_(i32 noundef %0) #1 comdat {
  %2 = alloca i32, align 4
  store i32 %0, ptr %2, align 4
  %3 = load i32, ptr %2, align 4
  %4 = shl i32 1, %3
  ret i32 %4
}

; Function Attrs: mustprogress uwtable
define noundef ptr @_ZN3gmx19StatePropagatorData10localStateEv(ptr noundef nonnull align 8 dereferenceable(632) %0) #0 align 2 {
  %2 = alloca ptr, align 8
  store ptr %0, ptr %2, align 8
  %3 = load ptr, ptr %2, align 8
  %4 = getelementptr inbounds %"class.gmx::StatePropagatorData", ptr %3, i32 0, i32 22
  %5 = load ptr, ptr %4, align 8
  %6 = call noundef i32 @_Z18enumValueToBitMaskI10StateEntryEiT_(i32 noundef 7)
  %7 = call noundef i32 @_Z18enumValueToBitMaskI10StateEntryEiT_(i32 noundef 8)
  %8 = or i32 %6, %7
  %9 = call noundef i32 @_Z18enumValueToBitMaskI10StateEntryEiT_(i32 noundef 1)
  %10 = or i32 %8, %9
  call void @_ZN7t_state8setFlagsEi(ptr noundef nonnull align 8 dereferenceable(832) %5, i32 noundef %10)
  %11 = getelementptr inbounds %"class.gmx::StatePropagatorData", ptr %3, i32 0, i32 22
  %12 = load ptr, ptr %11, align 8
  %13 = getelementptr inbounds %"class.gmx::StatePropagatorData", ptr %3, i32 0, i32 1
  %14 = load i32, ptr %13, align 4
  call void @_ZN7t_state14changeNumAtomsEi(ptr noundef nonnull align 8 dereferenceable(832) %12, i32 noundef %14)
  %15 = getelementptr inbounds %"class.gmx::StatePropagatorData", ptr %3, i32 0, i32 22
  %16 = load ptr, ptr %15, align 8
  %17 = getelementptr inbounds %class.t_state, ptr %16, i32 0, i32 21
  %18 = getelementptr inbounds %"class.gmx::StatePropagatorData", ptr %3, i32 0, i32 2
  call void @_ZSt4swapIN3gmx12PaddedVectorINS0_11BasicVectorIfEENS0_9AllocatorIS3_NS0_20HostAllocationPolicyEEEEEENSt9enable_ifIXsr6__and_ISt6__not_ISt15__is_tuple_likeIT_EESt21is_move_constructibleISB_ESt18is_move_assignableISB_EEE5valueEvE4typeERSB_SK_(ptr noundef nonnull align 8 dereferenceable(40) %17, ptr noundef nonnull align 8 dereferenceable(40) %18) #14
  %19 = getelementptr inbounds %"class.gmx::StatePropagatorData", ptr %3, i32 0, i32 22
  %20 = load ptr, ptr %19, align 8
  %21 = getelementptr inbounds %class.t_state, ptr %20, i32 0, i32 22
  %22 = getelementptr inbounds %"class.gmx::StatePropagatorData", ptr %3, i32 0, i32 4
  call void @_ZSt4swapIN3gmx12PaddedVectorINS0_11BasicVectorIfEENS0_9AllocatorIS3_NS0_20HostAllocationPolicyEEEEEENSt9enable_ifIXsr6__and_ISt6__not_ISt15__is_tuple_likeIT_EESt21is_move_constructibleISB_ESt18is_move_assignableISB_EEE5valueEvE4typeERSB_SK_(ptr noundef nonnull align 8 dereferenceable(40) %21, ptr noundef nonnull align 8 dereferenceable(40) %22) #14
  %23 = getelementptr inbounds %"class.gmx::StatePropagatorData", ptr %3, i32 0, i32 6
  %24 = getelementptr inbounds [3 x [3 x float]], ptr %23, i64 0, i64 0
  %25 = getelementptr inbounds %"class.gmx::StatePropagatorData", ptr %3, i32 0, i32 22
  %26 = load ptr, ptr %25, align 8
  %27 = getelementptr inbounds %class.t_state, ptr %26, i32 0, i32 7
  %28 = getelementptr inbounds [3 x [3 x float]], ptr %27, i64 0, i64 0
  call void @_ZL8copy_matPA3_KfPA3_f(ptr noundef %24, ptr noundef %28)
  %29 = getelementptr inbounds %"class.gmx::StatePropagatorData", ptr %3, i32 0, i32 8
  %30 = load i32, ptr %29, align 8
  %31 = getelementptr inbounds %"class.gmx::StatePropagatorData", ptr %3, i32 0, i32 22
  %32 = load ptr, ptr %31, align 8
  %33 = getelementptr inbounds %class.t_state, ptr %32, i32 0, i32 28
  store i32 %30, ptr %33, align 8
  %34 = getelementptr inbounds %"class.gmx::StatePropagatorData", ptr %3, i32 0, i32 9
  %35 = load i32, ptr %34, align 4
  %36 = getelementptr inbounds %"class.gmx::StatePropagatorData", ptr %3, i32 0, i32 22
  %37 = load ptr, ptr %36, align 8
  %38 = getelementptr inbounds %class.t_state, ptr %37, i32 0, i32 29
  store i32 %35, ptr %38, align 4
  %39 = getelementptr inbounds %"class.gmx::StatePropagatorData", ptr %3, i32 0, i32 10
  %40 = getelementptr inbounds %"class.gmx::StatePropagatorData", ptr %3, i32 0, i32 22
  %41 = load ptr, ptr %40, align 8
  %42 = getelementptr inbounds %class.t_state, ptr %41, i32 0, i32 30
  %43 = call noundef nonnull align 8 dereferenceable(24) ptr @_ZNSt6vectorIiSaIiEEaSERKS1_(ptr noundef nonnull align 8 dereferenceable(24) %42, ptr noundef nonnull align 8 dereferenceable(24) %39)
  %44 = getelementptr inbounds %"class.gmx::StatePropagatorData", ptr %3, i32 0, i32 22
  %45 = load ptr, ptr %44, align 8
  ret ptr %45
}