; Function Attrs: mustprogress uwtable
define noundef ptr @_ZN3gmx19StatePropagatorData10localStateEv(ptr noundef nonnull align 8 dereferenceable(632) %0) local_unnamed_addr #0 align 2 {
  %2 = getelementptr inbounds i8, ptr %0, i64 624
  %3 = load ptr, ptr %2, align 8
  tail call void @_ZN7t_state8setFlagsEi(ptr noundef nonnull align 8 dereferenceable(832) %3, i32 noundef 386)
  %4 = load ptr, ptr %2, align 8
  %5 = getelementptr inbounds i8, ptr %0, i64 4
  %6 = load i32, ptr %5, align 4
  tail call void @_ZN7t_state14changeNumAtomsEi(ptr noundef nonnull align 8 dereferenceable(832) %4, i32 noundef %6)
  %7 = load ptr, ptr %2, align 8
  %8 = getelementptr inbounds i8, ptr %7, i64 408
  %9 = getelementptr inbounds i8, ptr %0, i64 8
  tail call void @_ZSt4swapIN3gmx12PaddedVectorINS0_11BasicVectorIfEENS0_9AllocatorIS3_NS0_20HostAllocationPolicyEEEEEENSt9enable_ifIXsr6__and_ISt6__not_ISt15__is_tuple_likeIT_EESt21is_move_constructibleISB_ESt18is_move_assignableISB_EEE5valueEvE4typeERSB_SK_(ptr noundef nonnull align 8 dereferenceable(40) %8, ptr noundef nonnull align 8 dereferenceable(40) %9) #17
  %10 = load ptr, ptr %2, align 8
  %11 = getelementptr inbounds i8, ptr %10, i64 448
  %12 = getelementptr inbounds i8, ptr %0, i64 88
  tail call void @_ZSt4swapIN3gmx12PaddedVectorINS0_11BasicVectorIfEENS0_9AllocatorIS3_NS0_20HostAllocationPolicyEEEEEENSt9enable_ifIXsr6__and_ISt6__not_ISt15__is_tuple_likeIT_EESt21is_move_constructibleISB_ESt18is_move_assignableISB_EEE5valueEvE4typeERSB_SK_(ptr noundef nonnull align 8 dereferenceable(40) %11, ptr noundef nonnull align 8 dereferenceable(40) %12) #17
  %13 = getelementptr inbounds i8, ptr %0, i64 272
  %14 = load ptr, ptr %2, align 8
  %15 = getelementptr inbounds i8, ptr %14, i64 52
  %16 = load float, ptr %13, align 8
  store float %16, ptr %15, align 4
  %17 = getelementptr inbounds i8, ptr %0, i64 276
  %18 = load float, ptr %17, align 4
  %19 = getelementptr inbounds i8, ptr %14, i64 56
  store float %18, ptr %19, align 4
  %20 = getelementptr inbounds i8, ptr %0, i64 280
  %21 = load float, ptr %20, align 8
  %22 = getelementptr inbounds i8, ptr %14, i64 60
  store float %21, ptr %22, align 4
  %23 = getelementptr inbounds i8, ptr %0, i64 284
  %24 = getelementptr inbounds i8, ptr %14, i64 64
  %25 = load float, ptr %23, align 4
  store float %25, ptr %24, align 4
  %26 = getelementptr inbounds i8, ptr %0, i64 288
  %27 = load float, ptr %26, align 8
  %28 = getelementptr inbounds i8, ptr %14, i64 68
  store float %27, ptr %28, align 4
  %29 = getelementptr inbounds i8, ptr %0, i64 292
  %30 = load float, ptr %29, align 4
  %31 = getelementptr inbounds i8, ptr %14, i64 72
  store float %30, ptr %31, align 4
  %32 = getelementptr inbounds i8, ptr %0, i64 296
  %33 = getelementptr inbounds i8, ptr %14, i64 76
  %34 = load float, ptr %32, align 8
  store float %34, ptr %33, align 4
  %35 = getelementptr inbounds i8, ptr %0, i64 300
  %36 = load float, ptr %35, align 4
  %37 = getelementptr inbounds i8, ptr %14, i64 80
  store float %36, ptr %37, align 4
  %38 = getelementptr inbounds i8, ptr %0, i64 304
  %39 = load float, ptr %38, align 8
  %40 = getelementptr inbounds i8, ptr %14, i64 84
  store float %39, ptr %40, align 4
  %41 = getelementptr inbounds i8, ptr %0, i64 344
  %42 = load i32, ptr %41, align 8
  %43 = load ptr, ptr %2, align 8
  %44 = getelementptr inbounds i8, ptr %43, i64 776
  store i32 %42, ptr %44, align 8
  %45 = getelementptr inbounds i8, ptr %0, i64 348
  %46 = load i32, ptr %45, align 4
  %47 = load ptr, ptr %2, align 8
  %48 = getelementptr inbounds i8, ptr %47, i64 780
  store i32 %46, ptr %48, align 4
  %49 = getelementptr inbounds i8, ptr %0, i64 352
  %50 = load ptr, ptr %2, align 8
  %51 = getelementptr inbounds i8, ptr %50, i64 784
  %52 = tail call noundef nonnull align 8 dereferenceable(24) ptr @_ZNSt6vectorIiSaIiEEaSERKS1_(ptr noundef nonnull align 8 dereferenceable(24) %51, ptr noundef nonnull align 8 dereferenceable(24) %49)
  %53 = load ptr, ptr %2, align 8
  ret ptr %53
}